target datalayout = "e-m:e-p270:32:32-p271:32:32-p272:64:64-i64:64-i128:128-f80:128-n8:16:32:64-S128"
target triple = "x86_64-unknown-linux-gnu"

%struct.sockaddr_in = type { i16, i16, %struct.in_addr, [8 x i8] }
%struct.in_addr = type { i32 }
%struct.NetSocketState = type { %struct.NetClientState, i32, i32, %struct.SocketReadState, i32, %struct.sockaddr_in, ptr, i8, i8 }
%struct.NetClientState = type { ptr, i32, %union.anon.1, ptr, ptr, ptr, ptr, [256 x i8], i8, ptr, i32, i8, i32, i32, i8, i8, i8, %union.anon.2 }
%union.anon.1 = type { %struct.QTailQLink }
%struct.QTailQLink = type { ptr, ptr }
%union.anon.2 = type { %struct.QTailQLink }
%struct.SocketReadState = type { i32, i8, i32, i32, i32, [69632 x i8], ptr }
%union.__CONST_SOCKADDR_ARG = type { ptr }

; Function Attrs: nounwind sspstrong uwtable
define internal void @net_socket_update_fd_handler(ptr noundef %s) #0 {
entry:
  %s.addr = alloca ptr, align 8
  store ptr %s, ptr %s.addr, align 8
  %0 = load ptr, ptr %s.addr, align 8
  %fd = getelementptr inbounds %struct.NetSocketState, ptr %0, i32 0, i32 2
  %1 = load i32, ptr %fd, align 4
  %2 = load ptr, ptr %s.addr, align 8
  %read_poll = getelementptr inbounds %struct.NetSocketState, ptr %2, i32 0, i32 7
  %3 = load i8, ptr %read_poll, align 8
  %tobool = trunc i8 %3 to i1
  br i1 %tobool, label %cond.true, label %cond.false

cond.true:                                        ; preds = %entry
  %4 = load ptr, ptr %s.addr, align 8
  %send_fn = getelementptr inbounds %struct.NetSocketState, ptr %4, i32 0, i32 6
  %5 = load ptr, ptr %send_fn, align 8
  br label %cond.end

cond.false:                                       ; preds = %entry
  br label %cond.end

cond.end:                                         ; preds = %cond.false, %cond.true
  %cond = phi ptr [ %5, %cond.true ], [ null, %cond.false ]
  %6 = load ptr, ptr %s.addr, align 8
  %write_poll = getelementptr inbounds %struct.NetSocketState, ptr %6, i32 0, i32 8
  %7 = load i8, ptr %write_poll, align 1
  %tobool1 = trunc i8 %7 to i1
  %cond2 = select i1 %tobool1, ptr @net_socket_writable, ptr null
  %8 = load ptr, ptr %s.addr, align 8
  call void @qemu_set_fd_handler(i32 noundef %1, ptr noundef %cond, ptr noundef %cond2, ptr noundef %8)
  ret void
}

; Function Attrs: nounwind sspstrong uwtable
define internal void @net_socket_write_poll(ptr noundef %s, i1 noundef zeroext %enable) #0 {
entry:
  %s.addr = alloca ptr, align 8
  %enable.addr = alloca i8, align 1
  store ptr %s, ptr %s.addr, align 8
  %frombool = zext i1 %enable to i8
  store i8 %frombool, ptr %enable.addr, align 1
  %0 = load i8, ptr %enable.addr, align 1
  %tobool = trunc i8 %0 to i1
  %1 = load ptr, ptr %s.addr, align 8
  %write_poll = getelementptr inbounds %struct.NetSocketState, ptr %1, i32 0, i32 8
  %frombool1 = zext i1 %tobool to i8
  store i8 %frombool1, ptr %write_poll, align 1
  %2 = load ptr, ptr %s.addr, align 8
  call void @net_socket_update_fd_handler(ptr noundef %2)
  ret void
}

; Function Attrs: nounwind sspstrong uwtable
define internal i64 @net_socket_receive_dgram(ptr noundef %nc, ptr noundef %buf, i64 noundef %size) #0 {
entry:
  %retval = alloca i64, align 8
  %nc.addr = alloca ptr, align 8
  %buf.addr = alloca ptr, align 8
  %size.addr = alloca i64, align 8
  %s = alloca ptr, align 8
  %tmp = alloca ptr, align 8
  %__mptr = alloca ptr, align 8
  %tmp1 = alloca ptr, align 8
  %ret = alloca i64, align 8
  %__result = alloca i64, align 8
  %agg.tmp = alloca %union.__CONST_SOCKADDR_ARG, align 8
  %tmp11 = alloca i64, align 8
  store ptr %nc, ptr %nc.addr, align 8
  store ptr %buf, ptr %buf.addr, align 8
  store i64 %size, ptr %size.addr, align 8
  %0 = load ptr, ptr %nc.addr, align 8
  store ptr %0, ptr %__mptr, align 8
  %1 = load ptr, ptr %__mptr, align 8
  %add.ptr = getelementptr i8, ptr %1, i64 0
  store ptr %add.ptr, ptr %tmp1, align 8
  %2 = load ptr, ptr %tmp1, align 8
  store ptr %2, ptr %tmp, align 8
  %3 = load ptr, ptr %tmp, align 8
  store ptr %3, ptr %s, align 8
  br label %do.body

do.body:                                          ; preds = %land.end, %entry
  %4 = load ptr, ptr %s, align 8
  %dgram_dst = getelementptr inbounds %struct.NetSocketState, ptr %4, i32 0, i32 5
  %sin_family = getelementptr inbounds %struct.sockaddr_in, ptr %dgram_dst, i32 0, i32 0
  %5 = load i16, ptr %sin_family, align 4
  %conv = zext i16 %5 to i32
  %cmp = icmp ne i32 %conv, 1
  br i1 %cmp, label %cond.true, label %cond.false

cond.true:                                        ; preds = %do.body
  %6 = load ptr, ptr %s, align 8
  %fd = getelementptr inbounds %struct.NetSocketState, ptr %6, i32 0, i32 2
  %7 = load i32, ptr %fd, align 4
  %8 = load ptr, ptr %buf.addr, align 8
  %9 = load i64, ptr %size.addr, align 8
  %10 = load ptr, ptr %s, align 8
  %dgram_dst3 = getelementptr inbounds %struct.NetSocketState, ptr %10, i32 0, i32 5
  store ptr %dgram_dst3, ptr %agg.tmp, align 8
  %coerce.dive = getelementptr inbounds %union.__CONST_SOCKADDR_ARG, ptr %agg.tmp, i32 0, i32 0
  %11 = load ptr, ptr %coerce.dive, align 8
  %call = call i64 @sendto(i32 noundef %7, ptr noundef %8, i64 noundef %9, i32 noundef 0, ptr %11, i32 noundef 16)
  br label %cond.end

cond.false:                                       ; preds = %do.body
  %12 = load ptr, ptr %s, align 8
  %fd4 = getelementptr inbounds %struct.NetSocketState, ptr %12, i32 0, i32 2
  %13 = load i32, ptr %fd4, align 4
  %14 = load ptr, ptr %buf.addr, align 8
  %15 = load i64, ptr %size.addr, align 8
  %call5 = call i64 @send(i32 noundef %13, ptr noundef %14, i64 noundef %15, i32 noundef 0)
  br label %cond.end

cond.end:                                         ; preds = %cond.false, %cond.true
  %cond = phi i64 [ %call, %cond.true ], [ %call5, %cond.false ]
  store i64 %cond, ptr %__result, align 8
  br label %do.cond

do.cond:                                          ; preds = %cond.end
  %16 = load i64, ptr %__result, align 8
  %cmp6 = icmp eq i64 %16, -1
  br i1 %cmp6, label %land.rhs, label %land.end

land.rhs:                                         ; preds = %do.cond
  %call8 = call ptr @__errno_location() #8
  %17 = load i32, ptr %call8, align 4
  %cmp9 = icmp eq i32 %17, 4
  br label %land.end

land.end:                                         ; preds = %land.rhs, %do.cond
  %18 = phi i1 [ false, %do.cond ], [ %cmp9, %land.rhs ]
  br i1 %18, label %do.body, label %do.end, !llvm.loop !5

do.end:                                           ; preds = %land.end
  %19 = load i64, ptr %__result, align 8
  store i64 %19, ptr %tmp11, align 8
  %20 = load i64, ptr %tmp11, align 8
  store i64 %20, ptr %ret, align 8
  %21 = load i64, ptr %ret, align 8
  %cmp12 = icmp eq i64 %21, -1
  br i1 %cmp12, label %land.lhs.true, label %if.end

land.lhs.true:                                    ; preds = %do.end
  %call14 = call ptr @__errno_location() #8
  %22 = load i32, ptr %call14, align 4
  %cmp15 = icmp eq i32 %22, 11
  br i1 %cmp15, label %if.then, label %if.end

if.then:                                          ; preds = %land.lhs.true
  %23 = load ptr, ptr %s, align 8
  call void @net_socket_write_poll(ptr noundef %23, i1 noundef zeroext true)
  store i64 0, ptr %retval, align 8
  br label %return

if.end:                                           ; preds = %land.lhs.true, %do.end
  %24 = load i64, ptr %ret, align 8
  store i64 %24, ptr %retval, align 8
  br label %return

return:                                           ; preds = %if.end, %if.then
  %25 = load i64, ptr %retval, align 8
  ret i64 %25
}