; Function Attrs: nounwind sspstrong uwtable
define internal i64 @net_socket_receive_dgram(ptr noundef %nc, ptr noundef %buf, i64 noundef %size) #0 {
entry:
  %dgram_dst = getelementptr inbounds nuw i8, ptr %nc, i64 70052
  %fd = getelementptr inbounds nuw i8, ptr %nc, i64 380
  br label %do.body

do.body:                                          ; preds = %land.rhs, %entry
  %0 = load i16, ptr %dgram_dst, align 4
  %cmp.not = icmp eq i16 %0, 1
  %1 = load i32, ptr %fd, align 4
  br i1 %cmp.not, label %cond.false, label %cond.true

cond.true:                                        ; preds = %do.body
  %call = tail call i64 @sendto(i32 noundef %1, ptr noundef %buf, i64 noundef %size, i32 noundef 0, ptr nonnull %dgram_dst, i32 noundef 16) #8
  br label %cond.end

cond.false:                                       ; preds = %do.body
  %call5 = tail call i64 @send(i32 noundef %1, ptr noundef %buf, i64 noundef %size, i32 noundef 0) #8
  br label %cond.end

cond.end:                                         ; preds = %cond.false, %cond.true
  %cond = phi i64 [ %call, %cond.true ], [ %call5, %cond.false ]
  %cmp6 = icmp eq i64 %cond, -1
  br i1 %cmp6, label %land.rhs, label %return

land.rhs:                                         ; preds = %cond.end
  %call8 = tail call ptr @__errno_location() #9
  %2 = load i32, ptr %call8, align 4
  switch i32 %2, label %return [
    i32 4, label %do.body
    i32 11, label %if.then
  ]

if.then:                                          ; preds = %land.rhs
  %write_poll.i = getelementptr inbounds nuw i8, ptr %nc, i64 70081
  store i8 1, ptr %write_poll.i, align 1
  %3 = load i32, ptr %fd, align 4
  %read_poll.i.i = getelementptr inbounds nuw i8, ptr %nc, i64 70080
  %4 = load i8, ptr %read_poll.i.i, align 8
  %tobool.i.i = trunc i8 %4 to i1
  br i1 %tobool.i.i, label %cond.true.i.i, label %net_socket_write_poll.exit

cond.true.i.i:                                    ; preds = %if.then
  %send_fn.i.i = getelementptr inbounds nuw i8, ptr %nc, i64 70072
  %5 = load ptr, ptr %send_fn.i.i, align 8
  br label %net_socket_write_poll.exit

net_socket_write_poll.exit:                       ; preds = %if.then, %cond.true.i.i
  %cond.i.i = phi ptr [ %5, %cond.true.i.i ], [ null, %if.then ]
  tail call void @qemu_set_fd_handler(i32 noundef %3, ptr noundef %cond.i.i, ptr noundef nonnull @net_socket_writable, ptr noundef nonnull %nc) #8
  br label %return

return:                                           ; preds = %land.rhs, %cond.end, %net_socket_write_poll.exit
  %retval.0 = phi i64 [ 0, %net_socket_write_poll.exit ], [ -1, %land.rhs ], [ %cond, %cond.end ]
  ret i64 %retval.0
}